ccopy_reg
_reconstructor
p0
(csklearn.linear_model.base
LinearRegression
p1
c__builtin__
object
p2
Ntp3
Rp4
(dp5
S'normalize'
p6
I00
sS'n_jobs'
p7
I1
sS'rank_'
p8
I4
sS'fit_intercept'
p9
I01
sS'_residues'
p10
cnumpy.core.multiarray
scalar
p11
(cnumpy
dtype
p12
(S'f8'
p13
I0
I1
tp14
Rp15
(I3
S'<'
p16
NNNI-1
I-1
I0
tp17
bS'\x05\x08\x1f\xaf\xed\xc4HA'
p18
tp19
Rp20
sS'singular_'
p21
cnumpy.core.multiarray
_reconstruct
p22
(cnumpy
ndarray
p23
(I0
tp24
S'b'
p25
tp26
Rp27
(I1
(I4
tp28
g15
I00
S'9\xcf\x14{\x8f\xb0Q@K\xb7\xa9\xf2\xbbQI@\xb6{|De#D@\x07s\xa4\r\xbf\xd5<@'
p29
tp30
bsS'coef_'
p31
g22
(g23
(I0
tp32
g25
tp33
Rp34
(I1
(I4
tp35
g15
I00
S'\xab$\xdd9\xc7\xf6j@`/\xc4\xd9b\x9f\xf8\xbf\x00\xb9\xed\x83J\x18\xd1?\xa0%\x1f\x87\xfe\x13\x02\xc0'
p36
tp37
bsS'_sklearn_version'
p38
S'0.18.1'
p39
sS'copy_X'
p40
I01
sS'intercept_'
p41
g11
(g15
S'\xca\xa2\x83Q\xdb\xd8w@'
p42
tp43
Rp44
sb.